target datalayout = "e-m:e-p270:32:32-p271:32:32-p272:64:64-i64:64-i128:128-f80:128-n8:16:32:64-S128"
target triple = "x86_64-pc-linux-gnu"

@opt_verbosity = internal global i32 6, align 4
@bio_err = external global ptr, align 8
@.str.351 = private unnamed_addr constant [22 x i8] c"../openssl/apps/cmp.c\00", align 1
@.str.352 = private unnamed_addr constant [6 x i8] c"error\00", align 1
@.str.353 = private unnamed_addr constant [1 x i8] zeroinitializer, align 1
@cmp_ctx = internal global ptr null, align 8
@prog = internal global ptr null, align 8
@opt_port = internal global ptr null, align 8
@opt_max_msgs = internal global i32 0, align 4
@.str.431 = private unnamed_addr constant [6 x i8] c"pkix/\00", align 1
@.str.432 = private unnamed_addr constant [10 x i8] c"Not Found\00", align 1
@.str.433 = private unnamed_addr constant [67 x i8] c"%s:%s:%d:CMP %s: expecting empty path or 'pkix/' but got '%s'%s%s\0A\00", align 1
@__func__.cmp_server = private unnamed_addr constant [11 x i8] c"cmp_server\00", align 1
@.str.434 = private unnamed_addr constant [22 x i8] c"Internal Server Error\00", align 1
@.str.435 = private unnamed_addr constant [20 x i8] c"application/pkixcmp\00", align 1

; Function Attrs: nounwind uwtable
define internal i32 @cmp_server(ptr noundef %0) #0 {
  %2 = alloca i32, align 4
  %3 = alloca ptr, align 8
  %4 = alloca ptr, align 8
  %5 = alloca ptr, align 8
  %6 = alloca i32, align 4
  %7 = alloca i32, align 4
  %8 = alloca i32, align 4
  %9 = alloca i32, align 4
  %10 = alloca i32, align 4
  %11 = alloca ptr, align 8
  %12 = alloca ptr, align 8
  %13 = alloca ptr, align 8
  store ptr %0, ptr %3, align 8, !tbaa !17
  call void @llvm.lifetime.start.p0(i64 8, ptr %4) #11
  call void @llvm.lifetime.start.p0(i64 8, ptr %5) #11
  store ptr null, ptr %5, align 8, !tbaa !21
  call void @llvm.lifetime.start.p0(i64 4, ptr %6) #11
  store i32 0, ptr %6, align 4, !tbaa !4
  call void @llvm.lifetime.start.p0(i64 4, ptr %7) #11
  store i32 0, ptr %7, align 4, !tbaa !4
  call void @llvm.lifetime.start.p0(i64 4, ptr %8) #11
  store i32 1, ptr %8, align 4, !tbaa !4
  call void @llvm.lifetime.start.p0(i64 4, ptr %9) #11
  store i32 1, ptr %9, align 4, !tbaa !4
  %14 = load ptr, ptr @prog, align 8, !tbaa !11
  %15 = load ptr, ptr @opt_port, align 8, !tbaa !11
  %16 = load i32, ptr @opt_verbosity, align 4, !tbaa !4
  %17 = call ptr @http_server_init(ptr noundef %14, ptr noundef %15, i32 noundef %16)
  store ptr %17, ptr %4, align 8, !tbaa !21
  %18 = icmp eq ptr %17, null
  br i1 %18, label %19, label %20

19:                                               ; preds = %1
  store i32 0, ptr %2, align 4
  store i32 1, ptr %10, align 4
  br label %127

20:                                               ; preds = %1
  br label %21

21:                                               ; preds = %122, %120, %20
  %22 = load i32, ptr @opt_max_msgs, align 4, !tbaa !4
  %23 = icmp sle i32 %22, 0
  br i1 %23, label %28, label %24

24:                                               ; preds = %21
  %25 = load i32, ptr %7, align 4, !tbaa !4
  %26 = load i32, ptr @opt_max_msgs, align 4, !tbaa !4
  %27 = icmp slt i32 %25, %26
  br label %28

28:                                               ; preds = %24, %21
  %29 = phi i1 [ true, %21 ], [ %27, %24 ]
  br i1 %29, label %30, label %123

30:                                               ; preds = %28
  call void @llvm.lifetime.start.p0(i64 8, ptr %11) #11
  store ptr null, ptr %11, align 8, !tbaa !11
  call void @llvm.lifetime.start.p0(i64 8, ptr %12) #11
  store ptr null, ptr %12, align 8, !tbaa !63
  call void @llvm.lifetime.start.p0(i64 8, ptr %13) #11
  store ptr null, ptr %13, align 8, !tbaa !63
  %31 = call ptr @OSSL_CMP_MSG_it()
  %32 = load ptr, ptr %4, align 8, !tbaa !21
  %33 = load ptr, ptr @prog, align 8, !tbaa !11
  %34 = call i32 @http_server_get_asn1_req(ptr noundef %31, ptr noundef %12, ptr noundef %11, ptr noundef %5, ptr noundef %32, ptr noundef %6, ptr noundef %33, i32 noundef 0, i32 noundef 0)
  store i32 %34, ptr %9, align 4, !tbaa !4
  %35 = load i32, ptr %9, align 4, !tbaa !4
  %36 = icmp eq i32 %35, 0
  br i1 %36, label %37, label %42

37:                                               ; preds = %30
  %38 = load i32, ptr %8, align 4, !tbaa !4
  %39 = icmp ne i32 %38, 0
  br i1 %39, label %40, label %41

40:                                               ; preds = %37
  call void @OSSL_sleep(i64 noundef 1000)
  store i32 0, ptr %8, align 4, !tbaa !4
  store i32 2, ptr %10, align 4
  br label %120, !llvm.loop !65

41:                                               ; preds = %37
  store i32 0, ptr %9, align 4, !tbaa !4
  br label %99

42:                                               ; preds = %30
  %43 = load i32, ptr %9, align 4, !tbaa !4
  %44 = add nsw i32 %43, 1
  store i32 %44, ptr %9, align 4, !tbaa !4
  %45 = icmp eq i32 %43, -1
  br i1 %45, label %46, label %47

46:                                               ; preds = %42
  store i32 3, ptr %10, align 4
  br label %120

47:                                               ; preds = %42
  store i32 0, ptr %9, align 4, !tbaa !4
  %48 = load i32, ptr %7, align 4, !tbaa !4
  %49 = add nsw i32 %48, 1
  store i32 %49, ptr %7, align 4, !tbaa !4
  %50 = load ptr, ptr %12, align 8, !tbaa !63
  %51 = icmp ne ptr %50, null
  br i1 %51, label %52, label %98

52:                                               ; preds = %47
  %53 = load ptr, ptr %11, align 8, !tbaa !11
  %54 = call i32 @strcmp(ptr noundef %53, ptr noundef @.str.353) #12
  %55 = icmp ne i32 %54, 0
  br i1 %55, label %56, label %74

56:                                               ; preds = %52
  %57 = load ptr, ptr %11, align 8, !tbaa !11
  %58 = call i32 @strcmp(ptr noundef %57, ptr noundef @.str.431) #12
  %59 = icmp ne i32 %58, 0
  br i1 %59, label %60, label %74

60:                                               ; preds = %56
  %61 = load ptr, ptr @prog, align 8, !tbaa !11
  %62 = load ptr, ptr %5, align 8, !tbaa !21
  %63 = call i32 @http_server_send_status(ptr noundef %61, ptr noundef %62, i32 noundef 404, ptr noundef @.str.432)
  %64 = load i32, ptr @opt_verbosity, align 4, !tbaa !4
  %65 = icmp sgt i32 3, %64
  br i1 %65, label %66, label %67

66:                                               ; preds = %60
  br label %71

67:                                               ; preds = %60
  %68 = load ptr, ptr @bio_err, align 8, !tbaa !21
  %69 = load ptr, ptr %11, align 8, !tbaa !11
  %70 = call i32 (ptr, ptr, ...) @BIO_printf(ptr noundef %68, ptr noundef @.str.433, ptr noundef @__func__.cmp_server, ptr noundef @.str.351, i32 noundef 3258, ptr noundef @.str.352, ptr noundef %69, ptr noundef @.str.353, ptr noundef @.str.353)
  br label %71

71:                                               ; preds = %67, %66
  %72 = load ptr, ptr %11, align 8, !tbaa !11
  call void @CRYPTO_free(ptr noundef %72, ptr noundef @.str.351, i32 noundef 3259)
  %73 = load ptr, ptr %12, align 8, !tbaa !63
  call void @OSSL_CMP_MSG_free(ptr noundef %73)
  br label %99

74:                                               ; preds = %56, %52
  %75 = load ptr, ptr %11, align 8, !tbaa !11
  call void @CRYPTO_free(ptr noundef %75, ptr noundef @.str.351, i32 noundef 3263)
  %76 = load ptr, ptr @cmp_ctx, align 8, !tbaa !17
  %77 = load ptr, ptr %12, align 8, !tbaa !63
  %78 = call ptr @OSSL_CMP_CTX_server_perform(ptr noundef %76, ptr noundef %77)
  store ptr %78, ptr %13, align 8, !tbaa !63
  %79 = load ptr, ptr %12, align 8, !tbaa !63
  call void @OSSL_CMP_MSG_free(ptr noundef %79)
  %80 = load ptr, ptr %13, align 8, !tbaa !63
  %81 = icmp eq ptr %80, null
  br i1 %81, label %82, label %86

82:                                               ; preds = %74
  %83 = load ptr, ptr @prog, align 8, !tbaa !11
  %84 = load ptr, ptr %5, align 8, !tbaa !21
  %85 = call i32 @http_server_send_status(ptr noundef %83, ptr noundef %84, i32 noundef 500, ptr noundef @.str.434)
  store i32 3, ptr %10, align 4
  br label %120

86:                                               ; preds = %74
  %87 = load ptr, ptr @prog, align 8, !tbaa !11
  %88 = load ptr, ptr %5, align 8, !tbaa !21
  %89 = load i32, ptr %6, align 4, !tbaa !4
  %90 = call ptr @OSSL_CMP_MSG_it()
  %91 = load ptr, ptr %13, align 8, !tbaa !63
  %92 = call i32 @http_server_send_asn1_resp(ptr noundef %87, ptr noundef %88, i32 noundef %89, ptr noundef @.str.435, ptr noundef %90, ptr noundef %91)
  store i32 %92, ptr %9, align 4, !tbaa !4
  %93 = load ptr, ptr %13, align 8, !tbaa !63
  call void @OSSL_CMP_MSG_free(ptr noundef %93)
  %94 = load i32, ptr %9, align 4, !tbaa !4
  %95 = icmp ne i32 %94, 0
  br i1 %95, label %97, label %96

96:                                               ; preds = %86
  store i32 3, ptr %10, align 4
  br label %120

97:                                               ; preds = %86
  br label %98

98:                                               ; preds = %97, %47
  br label %99

99:                                               ; preds = %98, %71, %41
  %100 = load i32, ptr %9, align 4, !tbaa !4
  %101 = icmp ne i32 %100, 0
  br i1 %101, label %107, label %102

102:                                              ; preds = %99
  %103 = load ptr, ptr %3, align 8, !tbaa !17
  %104 = call i32 @OSSL_CMP_CTX_set1_transactionID(ptr noundef %103, ptr noundef null)
  %105 = load ptr, ptr %3, align 8, !tbaa !17
  %106 = call i32 @OSSL_CMP_CTX_set1_senderNonce(ptr noundef %105, ptr noundef null)
  br label %107

107:                                              ; preds = %102, %99
  %108 = load i32, ptr %9, align 4, !tbaa !4
  %109 = icmp ne i32 %108, 0
  br i1 %109, label %110, label %117

110:                                              ; preds = %107
  %111 = load i32, ptr %6, align 4, !tbaa !4
  %112 = icmp ne i32 %111, 0
  br i1 %112, label %113, label %117

113:                                              ; preds = %110
  %114 = load ptr, ptr %3, align 8, !tbaa !17
  %115 = call i32 @OSSL_CMP_CTX_get_status(ptr noundef %114)
  %116 = icmp ne i32 %115, -2
  br i1 %116, label %117, label %119

117:                                              ; preds = %113, %110, %107
  %118 = load ptr, ptr %5, align 8, !tbaa !21
  call void @BIO_free_all(ptr noundef %118)
  store ptr null, ptr %5, align 8, !tbaa !21
  br label %119

119:                                              ; preds = %117, %113
  store i32 0, ptr %10, align 4
  br label %120

120:                                              ; preds = %119, %96, %82, %46, %40
  call void @llvm.lifetime.end.p0(i64 8, ptr %13) #11
  call void @llvm.lifetime.end.p0(i64 8, ptr %12) #11
  call void @llvm.lifetime.end.p0(i64 8, ptr %11) #11
  %121 = load i32, ptr %10, align 4
  switch i32 %121, label %129 [
    i32 0, label %122
    i32 2, label %21
    i32 3, label %123
  ]

122:                                              ; preds = %120
  br label %21, !llvm.loop !65

123:                                              ; preds = %120, %28
  %124 = load ptr, ptr %5, align 8, !tbaa !21
  call void @BIO_free_all(ptr noundef %124)
  %125 = load ptr, ptr %4, align 8, !tbaa !21
  call void @BIO_free_all(ptr noundef %125)
  %126 = load i32, ptr %9, align 4, !tbaa !4
  store i32 %126, ptr %2, align 4
  store i32 1, ptr %10, align 4
  br label %127

127:                                              ; preds = %123, %19
  call void @llvm.lifetime.end.p0(i64 4, ptr %9) #11
  call void @llvm.lifetime.end.p0(i64 4, ptr %8) #11
  call void @llvm.lifetime.end.p0(i64 4, ptr %7) #11
  call void @llvm.lifetime.end.p0(i64 4, ptr %6) #11
  call void @llvm.lifetime.end.p0(i64 8, ptr %5) #11
  call void @llvm.lifetime.end.p0(i64 8, ptr %4) #11
  %128 = load i32, ptr %2, align 4
  ret i32 %128

129:                                              ; preds = %120
  unreachable
}