; Function Attrs: nounwind uwtable
define internal fastcc i32 @cmp_server(ptr noundef %0) unnamed_addr #0 {
  %2 = alloca ptr, align 8
  %3 = alloca i32, align 4
  %4 = alloca ptr, align 8
  %5 = alloca ptr, align 8
  call void @llvm.lifetime.start.p0(i64 8, ptr nonnull %2) #12
  store ptr null, ptr %2, align 8, !tbaa !12
  call void @llvm.lifetime.start.p0(i64 4, ptr nonnull %3) #12
  store i32 0, ptr %3, align 4, !tbaa !10
  %6 = load ptr, ptr @prog, align 8, !tbaa !4
  %7 = load ptr, ptr @opt_port, align 8, !tbaa !4
  %8 = load i32, ptr @opt_verbosity, align 4, !tbaa !10
  %9 = tail call ptr @http_server_init(ptr noundef %6, ptr noundef %7, i32 noundef %8) #12
  %10 = icmp eq ptr %9, null
  br i1 %10, label %64, label %.lr.ph

.lr.ph:                                           ; preds = %1, %58
  %.02060 = phi i32 [ %.121, %58 ], [ 1, %1 ]
  %.02259 = phi i32 [ %.123, %58 ], [ 0, %1 ]
  call void @llvm.lifetime.start.p0(i64 8, ptr nonnull %4) #12
  store ptr null, ptr %4, align 8, !tbaa !4
  call void @llvm.lifetime.start.p0(i64 8, ptr nonnull %5) #12
  store ptr null, ptr %5, align 8, !tbaa !45
  %11 = call ptr @OSSL_CMP_MSG_it() #12
  %12 = load ptr, ptr @prog, align 8, !tbaa !4
  %13 = call i32 @http_server_get_asn1_req(ptr noundef %11, ptr noundef nonnull %5, ptr noundef nonnull %4, ptr noundef nonnull %2, ptr noundef nonnull %9, ptr noundef nonnull %3, ptr noundef %12, i32 noundef 0, i32 noundef 0) #12
  switch i32 %13, label %16 [
    i32 0, label %14
    i32 -1, label %.thread49
  ]

14:                                               ; preds = %.lr.ph
  %.not34 = icmp eq i32 %.02060, 0
  br i1 %.not34, label %.thread42, label %15

15:                                               ; preds = %14
  call void @OSSL_sleep(i64 noundef 1000) #12
  br label %58, !llvm.loop !47

16:                                               ; preds = %.lr.ph
  %17 = add nsw i32 %.02259, 1
  %18 = load ptr, ptr %5, align 8, !tbaa !45
  %.not = icmp eq ptr %18, null
  br i1 %.not, label %.thread42, label %19

19:                                               ; preds = %16
  %20 = load ptr, ptr %4, align 8, !tbaa !4
  %strcmpload = load i8, ptr %20, align 1
  %.not31 = icmp eq i8 %strcmpload, 0
  br i1 %.not31, label %36, label %21

21:                                               ; preds = %19
  %22 = call i32 @strcmp(ptr noundef nonnull dereferenceable(1) %20, ptr noundef nonnull dereferenceable(6) @.str.431) #13
  %.not32 = icmp eq i32 %22, 0
  br i1 %.not32, label %36, label %23

23:                                               ; preds = %21
  %24 = load ptr, ptr @prog, align 8, !tbaa !4
  %25 = load ptr, ptr %2, align 8, !tbaa !12
  %26 = call i32 @http_server_send_status(ptr noundef %24, ptr noundef %25, i32 noundef 404, ptr noundef nonnull @.str.432) #12
  %27 = load i32, ptr @opt_verbosity, align 4, !tbaa !10
  %28 = icmp slt i32 %27, 3
  br i1 %28, label %33, label %29

29:                                               ; preds = %23
  %30 = load ptr, ptr @bio_err, align 8, !tbaa !12
  %31 = load ptr, ptr %4, align 8, !tbaa !4
  %32 = call i32 (ptr, ptr, ...) @BIO_printf(ptr noundef %30, ptr noundef nonnull @.str.433, ptr noundef nonnull @__func__.cmp_server, ptr noundef nonnull @.str.351, i32 noundef 3258, ptr noundef nonnull @.str.352, ptr noundef %31, ptr noundef nonnull @.str.353, ptr noundef nonnull @.str.353) #12
  br label %33

33:                                               ; preds = %23, %29
  %34 = load ptr, ptr %4, align 8, !tbaa !4
  call void @CRYPTO_free(ptr noundef %34, ptr noundef nonnull @.str.351, i32 noundef 3259) #12
  %35 = load ptr, ptr %5, align 8, !tbaa !45
  call void @OSSL_CMP_MSG_free(ptr noundef %35) #12
  br label %.thread42

36:                                               ; preds = %21, %19
  call void @CRYPTO_free(ptr noundef nonnull %20, ptr noundef nonnull @.str.351, i32 noundef 3263) #12
  %37 = load ptr, ptr @cmp_ctx, align 8, !tbaa !36
  %38 = load ptr, ptr %5, align 8, !tbaa !45
  %39 = call ptr @OSSL_CMP_CTX_server_perform(ptr noundef %37, ptr noundef %38) #12
  %40 = load ptr, ptr %5, align 8, !tbaa !45
  call void @OSSL_CMP_MSG_free(ptr noundef %40) #12
  %41 = icmp eq ptr %39, null
  %42 = load ptr, ptr @prog, align 8, !tbaa !4
  %43 = load ptr, ptr %2, align 8, !tbaa !12
  br i1 %41, label %44, label %46

44:                                               ; preds = %36
  %45 = call i32 @http_server_send_status(ptr noundef %42, ptr noundef %43, i32 noundef 500, ptr noundef nonnull @.str.434) #12
  br label %.thread49

46:                                               ; preds = %36
  %47 = load i32, ptr %3, align 4, !tbaa !10
  %48 = call ptr @OSSL_CMP_MSG_it() #12
  %49 = call i32 @http_server_send_asn1_resp(ptr noundef %42, ptr noundef %43, i32 noundef %47, ptr noundef nonnull @.str.435, ptr noundef %48, ptr noundef nonnull %39) #12
  call void @OSSL_CMP_MSG_free(ptr noundef nonnull %39) #12
  %.not33 = icmp eq i32 %49, 0
  br i1 %.not33, label %.thread49, label %52

.thread42:                                        ; preds = %14, %16, %33
  %.224.ph = phi i32 [ %.02259, %14 ], [ %17, %16 ], [ %17, %33 ]
  %50 = call i32 @OSSL_CMP_CTX_set1_transactionID(ptr noundef %0, ptr noundef null) #12
  %51 = call i32 @OSSL_CMP_CTX_set1_senderNonce(ptr noundef %0, ptr noundef null) #12
  br label %56

52:                                               ; preds = %46
  %53 = load i32, ptr %3, align 4
  %.not56 = icmp eq i32 %53, 0
  br i1 %.not56, label %56, label %54

54:                                               ; preds = %52
  %55 = call i32 @OSSL_CMP_CTX_get_status(ptr noundef %0) #12
  %.not35 = icmp eq i32 %55, -2
  br i1 %.not35, label %58, label %56

56:                                               ; preds = %.thread42, %54, %52
  %.2243947 = phi i32 [ %.224.ph, %.thread42 ], [ %17, %54 ], [ %17, %52 ]
  %.34146 = phi i32 [ 0, %.thread42 ], [ %49, %54 ], [ %49, %52 ]
  %57 = load ptr, ptr %2, align 8, !tbaa !12
  call void @BIO_free_all(ptr noundef %57) #12
  store ptr null, ptr %2, align 8, !tbaa !12
  br label %58

.thread49:                                        ; preds = %.lr.ph, %46, %44
  call void @llvm.lifetime.end.p0(i64 8, ptr nonnull %5) #12
  call void @llvm.lifetime.end.p0(i64 8, ptr nonnull %4) #12
  br label %.loopexit

58:                                               ; preds = %54, %56, %15
  %.123 = phi i32 [ %.02259, %15 ], [ %.2243947, %56 ], [ %17, %54 ]
  %.121 = phi i32 [ 0, %15 ], [ %.02060, %56 ], [ %.02060, %54 ]
  %.2 = phi i32 [ 0, %15 ], [ %.34146, %56 ], [ %49, %54 ]
  call void @llvm.lifetime.end.p0(i64 8, ptr nonnull %5) #12
  call void @llvm.lifetime.end.p0(i64 8, ptr nonnull %4) #12
  %59 = load i32, ptr @opt_max_msgs, align 4, !tbaa !10
  %60 = icmp slt i32 %59, 1
  %61 = icmp slt i32 %.123, %59
  %62 = select i1 %60, i1 true, i1 %61
  br i1 %62, label %.lr.ph, label %.loopexit

.loopexit:                                        ; preds = %58, %.thread49
  %.1 = phi i32 [ 0, %.thread49 ], [ %.2, %58 ]
  %63 = load ptr, ptr %2, align 8, !tbaa !12
  call void @BIO_free_all(ptr noundef %63) #12
  call void @BIO_free_all(ptr noundef nonnull %9) #12
  br label %64

64:                                               ; preds = %1, %.loopexit
  %.025 = phi i32 [ %.1, %.loopexit ], [ 0, %1 ]
  call void @llvm.lifetime.end.p0(i64 4, ptr nonnull %3) #12
  call void @llvm.lifetime.end.p0(i64 8, ptr nonnull %2) #12
  ret i32 %.025
}